; Function Attrs: mustprogress nounwind uwtable
define internal fastcc void @_ZZN2dd10simplifier20simplify_linear_stepER10ptr_vectorINS_6solver8equationEEEN7trivialD2Ev(ptr noundef nonnull readonly align 8 captures(none) dereferenceable(16) %0) unnamed_addr #8 align 2 personality ptr @__gxx_personality_v0 {
  %2 = getelementptr inbounds nuw i8, ptr %0, i64 8
  %3 = load ptr, ptr %2, align 8, !tbaa !11
  %4 = icmp eq ptr %3, null
  br i1 %4, label %_ZN6vectorIPN2dd6solver8equationELb0EjED2Ev.exit, label %_ZN6vectorIPN2dd6solver8equationELb0EjE3endEv.exit

_ZN6vectorIPN2dd6solver8equationELb0EjE3endEv.exit: ; preds = %1
  %5 = getelementptr inbounds i8, ptr %3, i64 -4
  %6 = load i32, ptr %5, align 4, !tbaa !15
  %7 = zext i32 %6 to i64
  %8 = getelementptr inbounds nuw ptr, ptr %3, i64 %7
  %.not8 = icmp eq i32 %6, 0
  br i1 %.not8, label %._crit_edge.thread13, label %.lr.ph

._crit_edge:                                      ; preds = %16
  %.pre = load ptr, ptr %2, align 8, !tbaa !11
  %.not.i.i = icmp eq ptr %.pre, null
  br i1 %.not.i.i, label %_ZN6vectorIPN2dd6solver8equationELb0EjED2Ev.exit, label %._crit_edge.thread13

._crit_edge.thread13:                             ; preds = %_ZN6vectorIPN2dd6solver8equationELb0EjE3endEv.exit, %._crit_edge
  %9 = phi ptr [ %.pre, %._crit_edge ], [ %3, %_ZN6vectorIPN2dd6solver8equationELb0EjE3endEv.exit ]
  %10 = getelementptr inbounds i8, ptr %9, i64 -8
  invoke void @_ZN6memory10deallocateEPv(ptr noundef nonnull %10)
          to label %_ZN6vectorIPN2dd6solver8equationELb0EjED2Ev.exit unwind label %11

11:                                               ; preds = %._crit_edge.thread13
  %12 = landingpad { ptr, i32 }
          catch ptr null
  %13 = extractvalue { ptr, i32 } %12, 0
  tail call void @__clang_call_terminate(ptr %13) #24
  unreachable

_ZN6vectorIPN2dd6solver8equationELb0EjED2Ev.exit: ; preds = %1, %._crit_edge, %._crit_edge.thread13
  ret void

.lr.ph:                                           ; preds = %_ZN6vectorIPN2dd6solver8equationELb0EjE3endEv.exit, %16
  %.09 = phi ptr [ %17, %16 ], [ %3, %_ZN6vectorIPN2dd6solver8equationELb0EjE3endEv.exit ]
  %14 = load ptr, ptr %.09, align 8, !tbaa !17
  %15 = load ptr, ptr %0, align 8, !tbaa !164
  invoke void @_ZN2dd6solver12del_equationEPNS0_8equationE(ptr noundef nonnull align 8 dereferenceable(208) %15, ptr noundef %14)
          to label %16 unwind label %18

16:                                               ; preds = %.lr.ph
  %17 = getelementptr inbounds nuw i8, ptr %.09, i64 8
  %.not = icmp eq ptr %17, %8
  br i1 %.not, label %._crit_edge, label %.lr.ph

18:                                               ; preds = %.lr.ph
  %19 = landingpad { ptr, i32 }
          catch ptr null
  %20 = extractvalue { ptr, i32 } %19, 0
  tail call void @__clang_call_terminate(ptr %20) #24
  unreachable
}